; Function Attrs: nounwind uwtable
define dso_local range(i32 -1, 1) i32 @processPendingCommandAndInputBuffer(ptr noundef %0) local_unnamed_addr #0 {
  %2 = getelementptr inbounds nuw i8, ptr %0, i64 8
  %3 = load i64, ptr %2, align 8, !tbaa !86
  %4 = and i64 %3, 1073741824
  %.not = icmp eq i64 %4, 0
  br i1 %.not, label %16, label %5

5:                                                ; preds = %1
  %6 = and i64 %3, -1073741825
  store i64 %6, ptr %2, align 8, !tbaa !86
  %7 = load ptr, ptr getelementptr inbounds nuw (i8, ptr @server, i64 1480), align 8, !tbaa !135
  store ptr %0, ptr getelementptr inbounds nuw (i8, ptr @server, i64 1480), align 8, !tbaa !135
  %8 = tail call i32 @processCommand(ptr noundef nonnull %0) #26
  %9 = icmp eq i32 %8, 0
  br i1 %9, label %10, label %processCommandAndResetClient.exit

10:                                               ; preds = %5
  tail call void @commandProcessed(ptr noundef nonnull %0)
  %11 = getelementptr inbounds nuw i8, ptr %0, i64 16
  %12 = load ptr, ptr %11, align 8, !tbaa !75
  %.not.i = icmp eq ptr %12, null
  br i1 %.not.i, label %processCommandAndResetClient.exit, label %13

13:                                               ; preds = %10
  %14 = tail call i32 @updateClientMemUsageAndBucket(ptr noundef nonnull %0) #26
  br label %processCommandAndResetClient.exit

processCommandAndResetClient.exit:                ; preds = %5, %10, %13
  %15 = load ptr, ptr getelementptr inbounds nuw (i8, ptr @server, i64 1480), align 8, !tbaa !135
  %.not7.i = icmp eq ptr %15, null
  store ptr %7, ptr getelementptr inbounds nuw (i8, ptr @server, i64 1480), align 8, !tbaa !135
  br i1 %.not7.i, label %sdslen.exit.thread, label %16

16:                                               ; preds = %processCommandAndResetClient.exit, %1
  %17 = getelementptr inbounds nuw i8, ptr %0, i64 64
  %18 = load ptr, ptr %17, align 8, !tbaa !105
  %.not7 = icmp eq ptr %18, null
  br i1 %.not7, label %sdslen.exit.thread, label %19

19:                                               ; preds = %16
  %20 = getelementptr inbounds i8, ptr %18, i64 -1
  %21 = load i8, ptr %20, align 1, !tbaa !12
  %22 = zext i8 %21 to i32
  %23 = and i32 %22, 7
  switch i32 %23, label %sdslen.exit.thread [
    i32 0, label %24
    i32 1, label %27
    i32 2, label %31
    i32 3, label %35
    i32 4, label %39
  ]

24:                                               ; preds = %19
  %25 = lshr i32 %22, 3
  %26 = zext nneg i32 %25 to i64
  br label %sdslen.exit

27:                                               ; preds = %19
  %28 = getelementptr inbounds i8, ptr %18, i64 -3
  %29 = load i8, ptr %28, align 1, !tbaa !12
  %30 = zext i8 %29 to i64
  br label %sdslen.exit

31:                                               ; preds = %19
  %32 = getelementptr inbounds i8, ptr %18, i64 -5
  %33 = load i16, ptr %32, align 1, !tbaa !13
  %34 = zext i16 %33 to i64
  br label %sdslen.exit

35:                                               ; preds = %19
  %36 = getelementptr inbounds i8, ptr %18, i64 -9
  %37 = load i32, ptr %36, align 1, !tbaa !15
  %38 = zext i32 %37 to i64
  br label %sdslen.exit

39:                                               ; preds = %19
  %40 = getelementptr inbounds i8, ptr %18, i64 -17
  %41 = load i64, ptr %40, align 1, !tbaa !16
  br label %sdslen.exit

sdslen.exit:                                      ; preds = %24, %27, %31, %35, %39
  %.0.i = phi i64 [ %41, %39 ], [ %38, %35 ], [ %34, %31 ], [ %30, %27 ], [ %26, %24 ]
  %.not8 = icmp eq i64 %.0.i, 0
  br i1 %.not8, label %sdslen.exit.thread, label %42

42:                                               ; preds = %sdslen.exit
  %43 = tail call i32 @processInputBuffer(ptr noundef nonnull %0)
  br label %sdslen.exit.thread

sdslen.exit.thread:                               ; preds = %19, %16, %sdslen.exit, %processCommandAndResetClient.exit, %42
  %.0 = phi i32 [ %43, %42 ], [ -1, %processCommandAndResetClient.exit ], [ 0, %sdslen.exit ], [ 0, %16 ], [ 0, %19 ]
  ret i32 %.0
}